; Function Attrs: mustprogress uwtable
define noundef zeroext i1 @_ZN2cv6ccalib13CustomPattern12findRtRANSACERKNS_11_InputArrayES4_S4_S4_RKNS_17_InputOutputArrayES7_bifiRKNS_12_OutputArrayEi(ptr noundef nonnull readnone align 8 captures(none) dereferenceable(336) %0, ptr noundef nonnull align 8 dereferenceable(24) %1, ptr noundef nonnull align 8 dereferenceable(24) %2, ptr noundef nonnull align 8 dereferenceable(24) %3, ptr noundef nonnull align 8 dereferenceable(24) %4, ptr noundef nonnull align 8 dereferenceable(24) %5, ptr noundef nonnull align 8 dereferenceable(24) %6, i1 noundef zeroext %7, i32 noundef %8, float noundef %9, i32 noundef %10, ptr noundef nonnull align 8 dereferenceable(24) %11, i32 noundef %12) local_unnamed_addr #3 align 2 personality ptr @__gxx_personality_v0 {
  %14 = alloca %"class.cv::Mat", align 8
  %15 = alloca %"class.std::__cxx11::basic_string", align 8
  %16 = alloca %"class.std::allocator.15", align 1
  call void @llvm.lifetime.start.p0(i64 96, ptr nonnull %14) #24
  %17 = tail call noundef i32 @_ZNK2cv11_InputArray4kindEv(ptr noundef nonnull align 8 dereferenceable(24) %2), !noalias !206
  %18 = icmp eq i32 %17, 65536
  br i1 %18, label %19, label %22

19:                                               ; preds = %13
  %20 = getelementptr inbounds nuw i8, ptr %2, i64 8
  %21 = load ptr, ptr %20, align 8, !tbaa !55, !noalias !206
  call void @_ZN2cv3MatC1ERKS0_(ptr noundef nonnull align 8 dereferenceable(96) %14, ptr noundef nonnull align 8 dereferenceable(96) %21)
  br label %_ZNK2cv11_InputArray6getMatEi.exit

22:                                               ; preds = %13
  call void @_ZNK2cv11_InputArray7getMat_Ei(ptr dead_on_unwind nonnull writable sret(%"class.cv::Mat") align 8 %14, ptr noundef nonnull align 8 dereferenceable(24) %2, i32 noundef -1)
  br label %_ZNK2cv11_InputArray6getMatEi.exit

_ZNK2cv11_InputArray6getMatEi.exit:               ; preds = %19, %22
  %23 = invoke noundef i32 @_ZNK2cv3Mat11checkVectorEiib(ptr noundef nonnull align 8 dereferenceable(96) %14, i32 noundef 2, i32 noundef -1, i1 noundef zeroext true)
          to label %24 unwind label %26

24:                                               ; preds = %_ZNK2cv11_InputArray6getMatEi.exit
  call void @_ZN2cv3MatD1Ev(ptr noundef nonnull align 8 dereferenceable(96) %14) #24
  call void @llvm.lifetime.end.p0(i64 96, ptr nonnull %14) #24
  %25 = icmp sgt i32 %23, 0
  br i1 %25, label %41, label %28

26:                                               ; preds = %_ZNK2cv11_InputArray6getMatEi.exit
  %27 = landingpad { ptr, i32 }
          cleanup
  call void @_ZN2cv3MatD1Ev(ptr noundef nonnull align 8 dereferenceable(96) %14) #24
  call void @llvm.lifetime.end.p0(i64 96, ptr nonnull %14) #24
  br label %50

28:                                               ; preds = %24
  call void @llvm.lifetime.start.p0(i64 32, ptr nonnull %15) #24
  call void @llvm.lifetime.start.p0(i64 1, ptr nonnull %16) #24
  invoke void @_ZNSt7__cxx1112basic_stringIcSt11char_traitsIcESaIcEEC2EPKcRKS3_(ptr noundef nonnull align 8 dereferenceable(32) %15, ptr noundef nonnull @.str.4, ptr noundef nonnull align 1 dereferenceable(1) %16)
          to label %29 unwind label %31

29:                                               ; preds = %28
  invoke void @_ZN2cv5errorEiRKNSt7__cxx1112basic_stringIcSt11char_traitsIcESaIcEEEPKcS9_i(i32 noundef -215, ptr noundef nonnull align 8 dereferenceable(32) %15, ptr noundef nonnull @__func__._ZN2cv6ccalib13CustomPattern12findRtRANSACERKNS_11_InputArrayES4_S4_S4_RKNS_17_InputOutputArrayES7_bifiRKNS_12_OutputArrayEi, ptr noundef nonnull @.str.1, i32 noundef 440) #25
          to label %30 unwind label %33

30:                                               ; preds = %29
  unreachable

31:                                               ; preds = %28
  %32 = landingpad { ptr, i32 }
          cleanup
  br label %_ZNSt7__cxx1112basic_stringIcSt11char_traitsIcESaIcEED2Ev.exit

33:                                               ; preds = %29
  %34 = landingpad { ptr, i32 }
          cleanup
  %35 = load ptr, ptr %15, align 8, !tbaa !47
  %36 = getelementptr inbounds nuw i8, ptr %15, i64 16
  %37 = icmp eq ptr %35, %36
  br i1 %37, label %_ZNKSt7__cxx1112basic_stringIcSt11char_traitsIcESaIcEE11_M_is_localEv.exit.thread.i.i, label %_ZNKSt7__cxx1112basic_stringIcSt11char_traitsIcESaIcEE11_M_is_localEv.exit.i.i

_ZNKSt7__cxx1112basic_stringIcSt11char_traitsIcESaIcEE11_M_is_localEv.exit.thread.i.i: ; preds = %33
  %38 = getelementptr inbounds nuw i8, ptr %15, i64 8
  %39 = load i64, ptr %38, align 8, !tbaa !51
  %40 = icmp ult i64 %39, 16
  call void @llvm.assume(i1 %40)
  br label %_ZNSt7__cxx1112basic_stringIcSt11char_traitsIcESaIcEED2Ev.exit

_ZNKSt7__cxx1112basic_stringIcSt11char_traitsIcESaIcEE11_M_is_localEv.exit.i.i: ; preds = %33
  call void @_ZdlPv(ptr noundef %35) #26
  br label %_ZNSt7__cxx1112basic_stringIcSt11char_traitsIcESaIcEED2Ev.exit

_ZNSt7__cxx1112basic_stringIcSt11char_traitsIcESaIcEED2Ev.exit: ; preds = %_ZNKSt7__cxx1112basic_stringIcSt11char_traitsIcESaIcEE11_M_is_localEv.exit.i.i, %_ZNKSt7__cxx1112basic_stringIcSt11char_traitsIcESaIcEE11_M_is_localEv.exit.thread.i.i, %31
  %.pn = phi { ptr, i32 } [ %32, %31 ], [ %34, %_ZNKSt7__cxx1112basic_stringIcSt11char_traitsIcESaIcEE11_M_is_localEv.exit.thread.i.i ], [ %34, %_ZNKSt7__cxx1112basic_stringIcSt11char_traitsIcESaIcEE11_M_is_localEv.exit.i.i ]
  call void @llvm.lifetime.end.p0(i64 1, ptr nonnull %16) #24
  call void @llvm.lifetime.end.p0(i64 32, ptr nonnull %15) #24
  br label %50

41:                                               ; preds = %24
  %42 = sitofp i32 %10 to double
  %43 = uitofp nneg i32 %23 to double
  %44 = fdiv double %42, %43
  %45 = fcmp olt double %44, 1.000000e-03
  %46 = fcmp ogt double %44, 0x3FEFF7CED916872B
  %47 = select i1 %46, double 0x3FEFF7CED916872B, double %44
  %48 = select i1 %45, double 1.000000e-03, double %47
  %49 = call noundef zeroext i1 @_ZN2cv14solvePnPRansacERKNS_11_InputArrayES2_S2_S2_RKNS_12_OutputArrayES5_bifdS5_i(ptr noundef nonnull align 8 dereferenceable(24) %1, ptr noundef nonnull align 8 dereferenceable(24) %2, ptr noundef nonnull align 8 dereferenceable(24) %3, ptr noundef nonnull align 8 dereferenceable(24) %4, ptr noundef nonnull align 8 dereferenceable(24) %5, ptr noundef nonnull align 8 dereferenceable(24) %6, i1 noundef zeroext %7, i32 noundef %8, float noundef %9, double noundef %48, ptr noundef nonnull align 8 dereferenceable(24) %11, i32 noundef %12)
  ret i1 true

50:                                               ; preds = %_ZNSt7__cxx1112basic_stringIcSt11char_traitsIcESaIcEED2Ev.exit, %26
  %.pn.pn = phi { ptr, i32 } [ %.pn, %_ZNSt7__cxx1112basic_stringIcSt11char_traitsIcESaIcEED2Ev.exit ], [ %27, %26 ]
  resume { ptr, i32 } %.pn.pn
}